target datalayout = "e-m:e-p270:32:32-p271:32:32-p272:64:64-i64:64-i128:128-f80:128-n8:16:32:64-S128"
target triple = "x86_64-pc-linux-gnu"

@.str.3 = private unnamed_addr constant [30 x i8] c"Assertion %s failed at %s:%d\0A\00", align 1
@.str.5 = private unnamed_addr constant [21 x i8] c"libavutil/imgutils.c\00", align 1
@.str.8 = private unnamed_addr constant [72 x i8] c"((src_linesize) >= 0 ? (src_linesize) : (-(src_linesize))) >= bytewidth\00", align 1
@.str.9 = private unnamed_addr constant [72 x i8] c"((dst_linesize) >= 0 ? (dst_linesize) : (-(dst_linesize))) >= bytewidth\00", align 1

; Function Attrs: nounwind uwtable
define internal void @image_copy_plane(ptr noundef %0, i64 noundef %1, ptr noundef %2, i64 noundef %3, i64 noundef %4, i32 noundef %5) #0 {
  %7 = alloca ptr, align 8
  %8 = alloca i64, align 8
  %9 = alloca ptr, align 8
  %10 = alloca i64, align 8
  %11 = alloca i64, align 8
  %12 = alloca i32, align 4
  store ptr %0, ptr %7, align 8, !tbaa !35
  store i64 %1, ptr %8, align 8, !tbaa !28
  store ptr %2, ptr %9, align 8, !tbaa !35
  store i64 %3, ptr %10, align 8, !tbaa !28
  store i64 %4, ptr %11, align 8, !tbaa !28
  store i32 %5, ptr %12, align 4, !tbaa !11
  %13 = load ptr, ptr %7, align 8, !tbaa !35
  %14 = icmp ne ptr %13, null
  br i1 %14, label %15, label %18

15:                                               ; preds = %6
  %16 = load ptr, ptr %9, align 8, !tbaa !35
  %17 = icmp ne ptr %16, null
  br i1 %17, label %19, label %18

18:                                               ; preds = %15, %6
  br label %66

19:                                               ; preds = %15
  br label %20

20:                                               ; preds = %19
  %21 = load i64, ptr %10, align 8, !tbaa !28
  %22 = icmp sge i64 %21, 0
  br i1 %22, label %23, label %25

23:                                               ; preds = %20
  %24 = load i64, ptr %10, align 8, !tbaa !28
  br label %28

25:                                               ; preds = %20
  %26 = load i64, ptr %10, align 8, !tbaa !28
  %27 = sub nsw i64 0, %26
  br label %28

28:                                               ; preds = %25, %23
  %29 = phi i64 [ %24, %23 ], [ %27, %25 ]
  %30 = load i64, ptr %11, align 8, !tbaa !28
  %31 = icmp sge i64 %29, %30
  br i1 %31, label %33, label %32

32:                                               ; preds = %28
  call void (ptr, i32, ptr, ...) @av_log(ptr noundef null, i32 noundef 0, ptr noundef @.str.3, ptr noundef @.str.8, ptr noundef @.str.5, i32 noundef 350)
  call void @abort() #11
  unreachable

33:                                               ; preds = %28
  br label %34

34:                                               ; preds = %33
  br label %35

35:                                               ; preds = %34
  %36 = load i64, ptr %8, align 8, !tbaa !28
  %37 = icmp sge i64 %36, 0
  br i1 %37, label %38, label %40

38:                                               ; preds = %35
  %39 = load i64, ptr %8, align 8, !tbaa !28
  br label %43

40:                                               ; preds = %35
  %41 = load i64, ptr %8, align 8, !tbaa !28
  %42 = sub nsw i64 0, %41
  br label %43

43:                                               ; preds = %40, %38
  %44 = phi i64 [ %39, %38 ], [ %42, %40 ]
  %45 = load i64, ptr %11, align 8, !tbaa !28
  %46 = icmp sge i64 %44, %45
  br i1 %46, label %48, label %47

47:                                               ; preds = %43
  call void (ptr, i32, ptr, ...) @av_log(ptr noundef null, i32 noundef 0, ptr noundef @.str.3, ptr noundef @.str.9, ptr noundef @.str.5, i32 noundef 351)
  call void @abort() #11
  unreachable

48:                                               ; preds = %43
  br label %49

49:                                               ; preds = %48
  br label %50

50:                                               ; preds = %63, %49
  %51 = load i32, ptr %12, align 4, !tbaa !11
  %52 = icmp sgt i32 %51, 0
  br i1 %52, label %53, label %66

53:                                               ; preds = %50
  %54 = load ptr, ptr %7, align 8, !tbaa !35
  %55 = load ptr, ptr %9, align 8, !tbaa !35
  %56 = load i64, ptr %11, align 8, !tbaa !28
  call void @llvm.memcpy.p0.p0.i64(ptr align 1 %54, ptr align 1 %55, i64 %56, i1 false)
  %57 = load i64, ptr %8, align 8, !tbaa !28
  %58 = load ptr, ptr %7, align 8, !tbaa !35
  %59 = getelementptr inbounds i8, ptr %58, i64 %57
  store ptr %59, ptr %7, align 8, !tbaa !35
  %60 = load i64, ptr %10, align 8, !tbaa !28
  %61 = load ptr, ptr %9, align 8, !tbaa !35
  %62 = getelementptr inbounds i8, ptr %61, i64 %60
  store ptr %62, ptr %9, align 8, !tbaa !35
  br label %63

63:                                               ; preds = %53
  %64 = load i32, ptr %12, align 4, !tbaa !11
  %65 = add nsw i32 %64, -1
  store i32 %65, ptr %12, align 4, !tbaa !11
  br label %50, !llvm.loop !51

66:                                               ; preds = %18, %50
  ret void
}