; Function Attrs: nounwind uwtable
define internal void @image_copy_plane(ptr noundef writeonly captures(address_is_null) %0, i64 noundef %1, ptr noundef readonly captures(address_is_null) %2, i64 noundef %3, i64 noundef %4, i32 noundef %5) #3 {
  %7 = icmp ne ptr %0, null
  %8 = icmp ne ptr %2, null
  %or.cond = and i1 %7, %8
  br i1 %or.cond, label %9, label %.loopexit

9:                                                ; preds = %6
  %10 = tail call i64 @llvm.abs.i64(i64 %3, i1 true)
  %.not = icmp slt i64 %10, %4
  br i1 %.not, label %11, label %12

11:                                               ; preds = %9
  tail call void (ptr, i32, ptr, ...) @av_log(ptr noundef null, i32 noundef 0, ptr noundef nonnull @.str.3, ptr noundef nonnull @.str.8, ptr noundef nonnull @.str.5, i32 noundef 350) #11
  tail call void @abort() #13
  unreachable

12:                                               ; preds = %9
  %13 = tail call i64 @llvm.abs.i64(i64 %1, i1 true)
  %.not24 = icmp slt i64 %13, %4
  br i1 %.not24, label %15, label %.preheader

.preheader:                                       ; preds = %12
  %14 = icmp sgt i32 %5, 0
  br i1 %14, label %.lr.ph, label %.loopexit

15:                                               ; preds = %12
  tail call void (ptr, i32, ptr, ...) @av_log(ptr noundef null, i32 noundef 0, ptr noundef nonnull @.str.3, ptr noundef nonnull @.str.9, ptr noundef nonnull @.str.5, i32 noundef 351) #11
  tail call void @abort() #13
  unreachable

.lr.ph:                                           ; preds = %.preheader, %.lr.ph
  %.027 = phi i32 [ %18, %.lr.ph ], [ %5, %.preheader ]
  %.01926 = phi ptr [ %16, %.lr.ph ], [ %0, %.preheader ]
  %.02025 = phi ptr [ %17, %.lr.ph ], [ %2, %.preheader ]
  tail call void @llvm.memcpy.p0.p0.i64(ptr align 1 %.01926, ptr align 1 %.02025, i64 %4, i1 false)
  %16 = getelementptr inbounds i8, ptr %.01926, i64 %1
  %17 = getelementptr inbounds i8, ptr %.02025, i64 %3
  %18 = add nsw i32 %.027, -1
  %19 = icmp samesign ugt i32 %.027, 1
  br i1 %19, label %.lr.ph, label %.loopexit, !llvm.loop !36

.loopexit:                                        ; preds = %.lr.ph, %.preheader, %6
  ret void
}